; Function Attrs: mustprogress nofree norecurse nosync nounwind memory(argmem: readwrite) uwtable
define internal void @_ZN2cvL13minMaxIdx_16sEPKsPKhPiS4_PmS5_im(ptr noundef readonly captures(none) %0, ptr noundef readonly %1, ptr noundef captures(none) %2, ptr noundef captures(none) %3, ptr noundef captures(none) %4, ptr noundef captures(none) %5, i32 noundef %6, i64 noundef %7) #7 {
  %9 = load i32, ptr %2, align 4, !tbaa !35
  %10 = load i32, ptr %3, align 4, !tbaa !35
  %11 = load i64, ptr %4, align 8, !tbaa !34
  %12 = load i64, ptr %5, align 8, !tbaa !34
  %.not.i = icmp eq ptr %1, null
  %13 = icmp sgt i32 %6, 0
  br i1 %.not.i, label %.preheader.i, label %.preheader75.i

.preheader75.i:                                   ; preds = %8
  br i1 %13, label %.lr.ph.preheader.i, label %_ZN2cvL10minMaxIdx_IsiEEvPKT_PKhPT0_S7_PmS8_im.exit

.lr.ph.preheader.i:                               ; preds = %.preheader75.i
  %wide.trip.count.i = zext nneg i32 %6 to i64
  br label %.lr.ph.i

.preheader.i:                                     ; preds = %8
  br i1 %13, label %.lr.ph90.preheader.i, label %_ZN2cvL10minMaxIdx_IsiEEvPKT_PKhPT0_S7_PmS8_im.exit

.lr.ph90.preheader.i:                             ; preds = %.preheader.i
  %wide.trip.count100.i = zext nneg i32 %6 to i64
  br label %.lr.ph90.i

.lr.ph90.i:                                       ; preds = %.lr.ph90.i, %.lr.ph90.preheader.i
  %indvars.iv97.i = phi i64 [ 0, %.lr.ph90.preheader.i ], [ %indvars.iv.next98.i, %.lr.ph90.i ]
  %.089.i = phi i32 [ %9, %.lr.ph90.preheader.i ], [ %spec.select70.i, %.lr.ph90.i ]
  %.04788.i = phi i32 [ %10, %.lr.ph90.preheader.i ], [ %.148.i, %.lr.ph90.i ]
  %.05386.i = phi i64 [ %12, %.lr.ph90.preheader.i ], [ %.154.i, %.lr.ph90.i ]
  %.05885.i = phi i64 [ %11, %.lr.ph90.preheader.i ], [ %spec.select.i, %.lr.ph90.i ]
  %14 = getelementptr inbounds nuw i16, ptr %0, i64 %indvars.iv97.i
  %15 = load i16, ptr %14, align 2, !tbaa !68
  %16 = sext i16 %15 to i32
  %17 = icmp sgt i32 %.089.i, %16
  %18 = add i64 %indvars.iv97.i, %7
  %spec.select.i = select i1 %17, i64 %18, i64 %.05885.i
  %spec.select70.i = tail call i32 @llvm.smin.i32(i32 %.089.i, i32 %16)
  %19 = icmp slt i32 %.04788.i, %16
  %.154.i = select i1 %19, i64 %18, i64 %.05386.i
  %.148.i = tail call i32 @llvm.smax.i32(i32 %.04788.i, i32 %16)
  %indvars.iv.next98.i = add nuw nsw i64 %indvars.iv97.i, 1
  %exitcond101.not.i = icmp eq i64 %indvars.iv.next98.i, %wide.trip.count100.i
  br i1 %exitcond101.not.i, label %_ZN2cvL10minMaxIdx_IsiEEvPKT_PKhPT0_S7_PmS8_im.exit, label %.lr.ph90.i, !llvm.loop !72

.lr.ph.i:                                         ; preds = %.lr.ph.i, %.lr.ph.preheader.i
  %indvars.iv.i = phi i64 [ 0, %.lr.ph.preheader.i ], [ %indvars.iv.next.i, %.lr.ph.i ]
  %.381.i = phi i32 [ %9, %.lr.ph.preheader.i ], [ %.4.i, %.lr.ph.i ]
  %.35079.i = phi i32 [ %10, %.lr.ph.preheader.i ], [ %.451.i, %.lr.ph.i ]
  %.35678.i = phi i64 [ %12, %.lr.ph.preheader.i ], [ %.457.i, %.lr.ph.i ]
  %.36177.i = phi i64 [ %11, %.lr.ph.preheader.i ], [ %.462.i, %.lr.ph.i ]
  %20 = getelementptr inbounds nuw i16, ptr %0, i64 %indvars.iv.i
  %21 = load i16, ptr %20, align 2, !tbaa !68
  %22 = getelementptr inbounds nuw i8, ptr %1, i64 %indvars.iv.i
  %23 = load i8, ptr %22, align 1, !tbaa !63
  %.not68.i = icmp eq i8 %23, 0
  %24 = sext i16 %21 to i32
  %25 = icmp sgt i32 %.381.i, %24
  %26 = add i64 %indvars.iv.i, %7
  %spec.select71.i = select i1 %25, i64 %26, i64 %.36177.i
  %spec.select72.i = tail call i32 @llvm.smin.i32(i32 %.381.i, i32 %24)
  %.462.i = select i1 %.not68.i, i64 %.36177.i, i64 %spec.select71.i
  %.4.i = select i1 %.not68.i, i32 %.381.i, i32 %spec.select72.i
  %27 = icmp slt i32 %.35079.i, %24
  %spec.select73.i = select i1 %27, i64 %26, i64 %.35678.i
  %spec.select74.i = tail call i32 @llvm.smax.i32(i32 %.35079.i, i32 %24)
  %.457.i = select i1 %.not68.i, i64 %.35678.i, i64 %spec.select73.i
  %.451.i = select i1 %.not68.i, i32 %.35079.i, i32 %spec.select74.i
  %indvars.iv.next.i = add nuw nsw i64 %indvars.iv.i, 1
  %exitcond.not.i = icmp eq i64 %indvars.iv.next.i, %wide.trip.count.i
  br i1 %exitcond.not.i, label %_ZN2cvL10minMaxIdx_IsiEEvPKT_PKhPT0_S7_PmS8_im.exit, label %.lr.ph.i, !llvm.loop !73

_ZN2cvL10minMaxIdx_IsiEEvPKT_PKhPT0_S7_PmS8_im.exit: ; preds = %.lr.ph.i, %.lr.ph90.i, %.preheader75.i, %.preheader.i
  %.260.i = phi i64 [ %11, %.preheader.i ], [ %11, %.preheader75.i ], [ %spec.select.i, %.lr.ph90.i ], [ %.462.i, %.lr.ph.i ]
  %.255.i = phi i64 [ %12, %.preheader.i ], [ %12, %.preheader75.i ], [ %.154.i, %.lr.ph90.i ], [ %.457.i, %.lr.ph.i ]
  %.249.i = phi i32 [ %10, %.preheader.i ], [ %10, %.preheader75.i ], [ %.148.i, %.lr.ph90.i ], [ %.451.i, %.lr.ph.i ]
  %.2.i = phi i32 [ %9, %.preheader.i ], [ %9, %.preheader75.i ], [ %spec.select70.i, %.lr.ph90.i ], [ %.4.i, %.lr.ph.i ]
  store i64 %.260.i, ptr %4, align 8, !tbaa !34
  store i64 %.255.i, ptr %5, align 8, !tbaa !34
  store i32 %.2.i, ptr %2, align 4, !tbaa !35
  store i32 %.249.i, ptr %3, align 4, !tbaa !35
  ret void
}